target datalayout = "e-m:e-p270:32:32-p271:32:32-p272:64:64-i64:64-i128:128-f80:128-n8:16:32:64-S128"
target triple = "x86_64-pc-linux-gnu"

%"class.icu_77::Quantifier" = type { %"class.icu_77::UnicodeFunctor", %"class.icu_77::UnicodeMatcher", ptr, i32, i32 }
%"class.icu_77::UnicodeFunctor" = type { %"class.icu_77::UObject" }
%"class.icu_77::UObject" = type { ptr }
%"class.icu_77::UnicodeMatcher" = type { ptr }

@_ZTVN6icu_777UObjectE = available_externally unnamed_addr constant { [5 x ptr] } { [5 x ptr] [ptr null, ptr @_ZTIN6icu_777UObjectE, ptr @_ZN6icu_777UObjectD1Ev, ptr @_ZN6icu_777UObjectD0Ev, ptr @_ZNK6icu_777UObject17getDynamicClassIDEv] }, align 8

; Function Attrs: inlinehint mustprogress nounwind uwtable
define linkonce_odr void @_ZN6icu_777UObjectC2Ev(ptr noundef nonnull align 8 dereferenceable(8) %0) unnamed_addr #2 comdat align 2 {
  %2 = alloca ptr, align 8
  store ptr %0, ptr %2, align 8, !tbaa !53
  %3 = load ptr, ptr %2, align 8
  store ptr getelementptr inbounds inrange(-16, 24) ({ [5 x ptr] }, ptr @_ZTVN6icu_777UObjectE, i32 0, i32 0, i32 2), ptr %3, align 8, !tbaa !27
  ret void
}

; Function Attrs: inlinehint mustprogress nounwind uwtable
define linkonce_odr void @_ZN6icu_7714UnicodeMatcherC2Ev(ptr noundef nonnull align 8 dereferenceable(8) %0) unnamed_addr #2 comdat align 2 {
  %2 = alloca ptr, align 8
  store ptr %0, ptr %2, align 8, !tbaa !36
  %3 = load ptr, ptr %2, align 8
  store ptr getelementptr inbounds inrange(-16, 48) ({ [8 x ptr] }, ptr @_ZTVN6icu_7714UnicodeMatcherE, i32 0, i32 0, i32 2), ptr %3, align 8, !tbaa !27
  ret void
}

; Function Attrs: inlinehint mustprogress nounwind uwtable
define linkonce_odr void @_ZN6icu_7714UnicodeFunctorC2Ev(ptr noundef nonnull align 8 dereferenceable(8) %0) unnamed_addr #2 comdat align 2 {
  %2 = alloca ptr, align 8
  store ptr %0, ptr %2, align 8, !tbaa !25
  %3 = load ptr, ptr %2, align 8
  call void @_ZN6icu_777UObjectC2Ev(ptr noundef nonnull align 8 dereferenceable(8) %3) #12
  store ptr getelementptr inbounds inrange(-16, 56) ({ [9 x ptr] }, ptr @_ZTVN6icu_7714UnicodeFunctorE, i32 0, i32 0, i32 2), ptr %3, align 8, !tbaa !27
  ret void
}

; Function Attrs: mustprogress nounwind uwtable
define void @_ZN6icu_7710QuantifierC2EPNS_14UnicodeFunctorEjj(ptr noundef nonnull align 8 dereferenceable(32) %0, ptr noundef %1, i32 noundef %2, i32 noundef %3) unnamed_addr #0 align 2 {
  %5 = alloca ptr, align 8
  %6 = alloca ptr, align 8
  %7 = alloca i32, align 4
  %8 = alloca i32, align 4
  store ptr %0, ptr %5, align 8, !tbaa !23
  store ptr %1, ptr %6, align 8, !tbaa !25
  store i32 %2, ptr %7, align 4, !tbaa !14
  store i32 %3, ptr %8, align 4, !tbaa !14
  %9 = load ptr, ptr %5, align 8
  call void @_ZN6icu_7714UnicodeFunctorC2Ev(ptr noundef nonnull align 8 dereferenceable(8) %9) #12
  %10 = getelementptr inbounds i8, ptr %9, i64 8
  call void @_ZN6icu_7714UnicodeMatcherC2Ev(ptr noundef nonnull align 8 dereferenceable(8) %10) #12
  store ptr getelementptr inbounds inrange(-16, 88) ({ [13 x ptr], [8 x ptr] }, ptr @_ZTVN6icu_7710QuantifierE, i32 0, i32 0, i32 2), ptr %9, align 8, !tbaa !27
  %11 = getelementptr inbounds i8, ptr %9, i64 8
  store ptr getelementptr inbounds inrange(-16, 48) ({ [13 x ptr], [8 x ptr] }, ptr @_ZTVN6icu_7710QuantifierE, i32 0, i32 1, i32 2), ptr %11, align 8, !tbaa !27
  %12 = load ptr, ptr %6, align 8, !tbaa !25
  %13 = getelementptr inbounds nuw %"class.icu_77::Quantifier", ptr %9, i32 0, i32 2
  store ptr %12, ptr %13, align 8, !tbaa !29
  %14 = load i32, ptr %7, align 4, !tbaa !14
  %15 = getelementptr inbounds nuw %"class.icu_77::Quantifier", ptr %9, i32 0, i32 3
  store i32 %14, ptr %15, align 8, !tbaa !34
  %16 = load i32, ptr %8, align 4, !tbaa !14
  %17 = getelementptr inbounds nuw %"class.icu_77::Quantifier", ptr %9, i32 0, i32 4
  store i32 %16, ptr %17, align 4, !tbaa !35
  ret void
}