; Function Attrs: mustprogress nofree norecurse nosync nounwind willreturn memory(argmem: write) uwtable
define void @_ZN6icu_7710QuantifierC2EPNS_14UnicodeFunctorEjj(ptr noundef nonnull writeonly align 8 captures(none) dereferenceable(32) initializes((0, 32)) %0, ptr noundef %1, i32 noundef %2, i32 noundef %3) unnamed_addr #10 align 2 {
  %5 = getelementptr inbounds nuw i8, ptr %0, i64 8
  store ptr getelementptr inbounds nuw inrange(-16, 88) (i8, ptr @_ZTVN6icu_7710QuantifierE, i64 16), ptr %0, align 8, !tbaa !15
  store ptr getelementptr inbounds nuw inrange(-16, 48) (i8, ptr @_ZTVN6icu_7710QuantifierE, i64 120), ptr %5, align 8, !tbaa !15
  %6 = getelementptr inbounds nuw i8, ptr %0, i64 16
  store ptr %1, ptr %6, align 8, !tbaa !17
  %7 = getelementptr inbounds nuw i8, ptr %0, i64 24
  store i32 %2, ptr %7, align 8, !tbaa !23
  %8 = getelementptr inbounds nuw i8, ptr %0, i64 28
  store i32 %3, ptr %8, align 4, !tbaa !24
  ret void
}